#include <math.h>
#include <stdio.h>
#include <stdlib.h>
#include <string.h>

int main()
{
	double PI=3.1415926;
	double a, b, c, d, s, x, y, S;
	scanf("%lf\n%lf\n%lf\n%lf\n", &a, &b, &c, &d);
	s=(a+b+c+d)/2;
	scanf("%lf", &x);
	y=x*PI/360;
	if((s-a)*(s-b)*(s-c)*(s-d)-a*b*c*d*cos(y)*cos(y)<0)
	{
		printf("Invalid input");
	}
	else
	{
		S=sqrt((s-a)*(s-b)*(s-c)*(s-d)-a*b*c*d*cos(y)*cos(y));
		printf("%.4lf", S);
	}
	return 0;
}